(lp1
(dp2
S'_run_id'
p3
S'10'
p4
sS'fastq'
p5
NsS'chkfile'
p6
S'qc.chk'
p7
sS'_data_sources'
p8
(lp9
sS'gzip'
p10
I00
sS'data'
p11
(lp12
(lp13
V/home/ag662/scratch60/agalma/data/transcriptomes/SRR3213614_1.fastq
p14
aV/home/ag662/scratch60/agalma/data/transcriptomes/SRR3213614_2.fastq
p15
aasS'id'
p16
S'SRR3213614'
p17
sS'previous'
p18
I00
sa(dp19
g3
g4
sg5
Nsg6
g7
sg8
(lp20
sg10
I00
sg18
I00
sg11
(lp21
(lp22
g14
ag15
aasg16
g17
sS'names'
p23
(lp24
S'SRR3213614_1_fastqc'
p25
aS'SRR3213614_2_fastqc'
p26
asa(dp27
g3
g4
sg5
Nsg6
g7
sg8
(lp28
sg10
I00
sg18
I00
sg11
(lp29
(lp30
g14
ag15
aasg16
g17
sg23
(lp31
g25
ag26
asa.