(lp1
(dp2
S'_run_id'
p3
S'13'
p4
sS'fastq'
p5
NsS'chkfile'
p6
S'qc.chk'
p7
sS'_data_sources'
p8
(lp9
sS'gzip'
p10
I00
sS'data'
p11
(lp12
(lp13
V/home/ag662/scratch60/agalma/data/transcriptomes/GCA_004367855.1_ASM436785v1_genomic.fastq
p14
aasS'id'
p15
S'GCA004367855.1'
p16
sS'previous'
p17
I00
sa(dp18
g3
g4
sg5
Nsg6
g7
sg8
(lp19
sg10
I00
sg17
I00
sg11
(lp20
(lp21
g14
aasg15
g16
sS'names'
p22
(lp23
sa(dp24
g3
g4
sg5
Nsg6
g7
sg8
(lp25
sg10
I00
sg17
I00
sg11
(lp26
(lp27
g14
aasg15
g16
sg22
(lp28
sa.