(lp1
(dp2
S'_run_id'
p3
S'9'
sS'fastq'
p4
NsS'chkfile'
p5
S'qc.chk'
p6
sS'_data_sources'
p7
(lp8
sS'gzip'
p9
I00
sS'data'
p10
(lp11
(lp12
V/home/ag662/scratch60/agalma/data/transcriptomes/SRR5226597.fastq
p13
aasS'id'
p14
S'SRR5226597'
p15
sS'previous'
p16
I00
sa(dp17
g3
S'9'
sg4
Nsg5
g6
sg7
(lp18
sg9
I00
sg16
I00
sg10
(lp19
(lp20
g13
aasg14
g15
sS'names'
p21
(lp22
S'SRR5226597_fastqc'
p23
asa(dp24
g3
S'9'
sg4
Nsg5
g6
sg7
(lp25
sg9
I00
sg16
I00
sg10
(lp26
(lp27
g13
aasg14
g15
sg21
(lp28
g23
asa.