(lp1
(dp2
S'_run_id'
p3
S'2'
sS'fastq'
p4
NsS'chkfile'
p5
S'qc.chk'
p6
sS'_data_sources'
p7
(lp8
sS'gzip'
p9
I00
sS'data'
p10
(lp11
(lp12
V/home/ag662/scratch60/agalma/data/transcriptomes/SRR5124573_1.fastq
p13
aV/home/ag662/scratch60/agalma/data/transcriptomes/SRR5124573_2.fastq
p14
aasS'id'
p15
S'SRR5124573'
p16
sS'previous'
p17
I00
sa(dp18
g3
S'2'
sg4
Nsg5
g6
sg7
(lp19
sg9
I00
sg17
I00
sg10
(lp20
(lp21
g13
ag14
aasg15
g16
sS'names'
p22
(lp23
S'SRR5124573_1_fastqc'
p24
aS'SRR5124573_2_fastqc'
p25
asa(dp26
g3
S'2'
sg4
Nsg5
g6
sg7
(lp27
sg9
I00
sg17
I00
sg10
(lp28
(lp29
g13
ag14
aasg15
g16
sg22
(lp30
g24
ag25
asa.